; Function Attrs: mustprogress nounwind uwtable
define hidden noundef ptr @_ZN6hermes5irgen11ESTreeIRGen24emitIteratorCompleteSlowEPNS_5ValueE(ptr noundef nonnull align 8 dereferenceable(200) %this, ptr noundef %iterResult) local_unnamed_addr #0 align 2 {
entry:
  %Builder = getelementptr inbounds i8, ptr %this, i64 8
  %call = tail call noundef ptr @_ZN6hermes9IRBuilder22createLoadPropertyInstEPNS_5ValueEN4llvh9StringRefE(ptr noundef nonnull align 8 dereferenceable(40) %Builder, ptr noundef %iterResult, ptr nonnull @.str.17, i64 4) #15
  %0 = icmp eq ptr %call, null
  %add.ptr = getelementptr inbounds i8, ptr %call, i64 16
  %spec.select = select i1 %0, ptr null, ptr %add.ptr
  ret ptr %spec.select
}